target datalayout = "e-m:e-p270:32:32-p271:32:32-p272:64:64-i64:64-i128:128-f80:128-n8:16:32:64-S128"
target triple = "x86_64-pc-linux-gnu"

%"struct.duckdb_yyjson::yyjson_alc" = type { ptr, ptr, ptr, ptr }
%"struct.duckdb_yyjson::yyjson_str_pool" = type { ptr, ptr, i64, i64, ptr }
%"struct.duckdb_yyjson::yyjson_val_pool" = type { ptr, ptr, i64, i64, ptr }
%"struct.duckdb_yyjson::yyjson_mut_doc" = type { ptr, %"struct.duckdb_yyjson::yyjson_alc", %"struct.duckdb_yyjson::yyjson_str_pool", %"struct.duckdb_yyjson::yyjson_val_pool" }

; Function Attrs: mustprogress nounwind uwtable
define noundef zeroext i1 @_ZN13duckdb_yyjson32yyjson_mut_doc_set_val_pool_sizeEPNS_14yyjson_mut_docEm(ptr noundef %0, i64 noundef %1) #0 {
  %3 = alloca i1, align 1
  %4 = alloca ptr, align 8
  %5 = alloca i64, align 8
  %6 = alloca i64, align 8
  %7 = alloca i32, align 4
  store ptr %0, ptr %4, align 8, !tbaa !71
  store i64 %1, ptr %5, align 8, !tbaa !9
  call void @llvm.lifetime.start.p0(i64 8, ptr %6) #15
  store i64 768614336404564649, ptr %6, align 8, !tbaa !9
  %8 = load ptr, ptr %4, align 8, !tbaa !71
  %9 = icmp ne ptr %8, null
  br i1 %9, label %10, label %17

10:                                               ; preds = %2
  %11 = load i64, ptr %5, align 8, !tbaa !9
  %12 = icmp ne i64 %11, 0
  br i1 %12, label %13, label %17

13:                                               ; preds = %10
  %14 = load i64, ptr %5, align 8, !tbaa !9
  %15 = load i64, ptr %6, align 8, !tbaa !9
  %16 = icmp ugt i64 %14, %15
  br i1 %16, label %17, label %18

17:                                               ; preds = %13, %10, %2
  store i1 false, ptr %3, align 1
  store i32 1, ptr %7, align 4
  br label %25

18:                                               ; preds = %13
  %19 = load i64, ptr %5, align 8, !tbaa !9
  %20 = add i64 %19, 1
  %21 = mul i64 %20, 24
  %22 = load ptr, ptr %4, align 8, !tbaa !71
  %23 = getelementptr inbounds nuw %"struct.duckdb_yyjson::yyjson_mut_doc", ptr %22, i32 0, i32 3
  %24 = getelementptr inbounds nuw %"struct.duckdb_yyjson::yyjson_val_pool", ptr %23, i32 0, i32 2
  store i64 %21, ptr %24, align 8, !tbaa !75
  store i1 true, ptr %3, align 1
  store i32 1, ptr %7, align 4
  br label %25

25:                                               ; preds = %18, %17
  call void @llvm.lifetime.end.p0(i64 8, ptr %6) #15
  %26 = load i1, ptr %3, align 1
  ret i1 %26
}