; Function Attrs: mustprogress nofree norecurse nosync nounwind willreturn memory(argmem: write) uwtable
define noundef zeroext i1 @_ZN13duckdb_yyjson32yyjson_mut_doc_set_val_pool_sizeEPNS_14yyjson_mut_docEm(ptr noundef writeonly captures(address_is_null) %0, i64 noundef %1) local_unnamed_addr #11 {
  %3 = icmp ne ptr %0, null
  %4 = add i64 %1, -1
  %5 = icmp ult i64 %4, 768614336404564649
  %or.cond9.not = and i1 %3, %5
  br i1 %or.cond9.not, label %6, label %10

6:                                                ; preds = %2
  %7 = mul nuw i64 %1, 24
  %8 = add nuw i64 %7, 24
  %9 = getelementptr inbounds nuw i8, ptr %0, i64 96
  store i64 %8, ptr %9, align 8, !tbaa !64
  br label %10

10:                                               ; preds = %2, %6
  ret i1 %or.cond9.not
}